target datalayout = "e-m:e-p270:32:32-p271:32:32-p272:64:64-i64:64-i128:128-f80:128-n8:16:32:64-S128"
target triple = "x86_64-pc-linux-gnu"

; Function Attrs: nounwind uwtable
define internal void @planar_rgb_to_a(ptr noundef %0, ptr noundef %1, i32 noundef %2, ptr noundef %3, ptr noundef %4) #2 {
  %6 = alloca ptr, align 8
  %7 = alloca ptr, align 8
  %8 = alloca i32, align 4
  %9 = alloca ptr, align 8
  %10 = alloca ptr, align 8
  %11 = alloca ptr, align 8
  %12 = alloca i32, align 4
  store ptr %0, ptr %6, align 8, !tbaa !34
  store ptr %1, ptr %7, align 8, !tbaa !47
  store i32 %2, ptr %8, align 4, !tbaa !30
  store ptr %3, ptr %9, align 8, !tbaa !35
  store ptr %4, ptr %10, align 8, !tbaa !31
  call void @llvm.lifetime.start.p0(i64 8, ptr %11) #9
  %13 = load ptr, ptr %6, align 8, !tbaa !34
  store ptr %13, ptr %11, align 8, !tbaa !43
  call void @llvm.lifetime.start.p0(i64 4, ptr %12) #9
  store i32 0, ptr %12, align 4, !tbaa !30
  br label %14

14:                                               ; preds = %33, %5
  %15 = load i32, ptr %12, align 4, !tbaa !30
  %16 = load i32, ptr %8, align 4, !tbaa !30
  %17 = icmp slt i32 %15, %16
  br i1 %17, label %18, label %36

18:                                               ; preds = %14
  %19 = load ptr, ptr %7, align 8, !tbaa !47
  %20 = getelementptr inbounds ptr, ptr %19, i64 3
  %21 = load ptr, ptr %20, align 8, !tbaa !34
  %22 = load i32, ptr %12, align 4, !tbaa !30
  %23 = sext i32 %22 to i64
  %24 = getelementptr inbounds i8, ptr %21, i64 %23
  %25 = load i8, ptr %24, align 1, !tbaa !36
  %26 = zext i8 %25 to i32
  %27 = shl i32 %26, 6
  %28 = trunc i32 %27 to i16
  %29 = load ptr, ptr %11, align 8, !tbaa !43
  %30 = load i32, ptr %12, align 4, !tbaa !30
  %31 = sext i32 %30 to i64
  %32 = getelementptr inbounds i16, ptr %29, i64 %31
  store i16 %28, ptr %32, align 2, !tbaa !44
  br label %33

33:                                               ; preds = %18
  %34 = load i32, ptr %12, align 4, !tbaa !30
  %35 = add nsw i32 %34, 1
  store i32 %35, ptr %12, align 4, !tbaa !30
  br label %14, !llvm.loop !74

36:                                               ; preds = %14
  call void @llvm.lifetime.end.p0(i64 4, ptr %12) #9
  call void @llvm.lifetime.end.p0(i64 8, ptr %11) #9
  ret void
}